; Function Attrs: nounwind uwtable
define ptr @l_Lake_stdFormat___at_Lake_ExternLib_dynlibFacetConfig___spec__1(i8 noundef zeroext %0, ptr noundef readonly captures(none) %1) local_unnamed_addr #0 {
  %3 = icmp eq i8 %0, 0
  %4 = getelementptr inbounds nuw i8, ptr %1, i64 8
  %5 = load ptr, ptr %4, align 8, !tbaa !4
  %6 = ptrtoint ptr %5 to i64
  %7 = and i64 %6, 1
  %.not14 = icmp eq i64 %7, 0
  br i1 %3, label %8, label %15

8:                                                ; preds = %2
  br i1 %.not14, label %9, label %lean_inc.exit10

9:                                                ; preds = %8
  %.val.i = load i32, ptr %5, align 4, !tbaa !8
  %10 = icmp sgt i32 %.val.i, 0
  br i1 %10, label %11, label %13, !prof !11

11:                                               ; preds = %9
  %12 = add nuw i32 %.val.i, 1
  store i32 %12, ptr %5, align 4, !tbaa !8
  br label %lean_inc.exit10

13:                                               ; preds = %9
  %.not.i = icmp eq i32 %.val.i, 0
  br i1 %.not.i, label %lean_inc.exit10, label %14

14:                                               ; preds = %13
  tail call void @lean_inc_ref_cold(ptr noundef nonnull %5) #5
  br label %lean_inc.exit10

15:                                               ; preds = %2
  br i1 %.not14, label %16, label %lean_inc.exit

16:                                               ; preds = %15
  %.val.i11 = load i32, ptr %5, align 4, !tbaa !8
  %17 = icmp sgt i32 %.val.i11, 0
  br i1 %17, label %18, label %20, !prof !11

18:                                               ; preds = %16
  %19 = add nuw i32 %.val.i11, 1
  store i32 %19, ptr %5, align 4, !tbaa !8
  br label %lean_inc.exit

20:                                               ; preds = %16
  %.not.i12 = icmp eq i32 %.val.i11, 0
  br i1 %.not.i12, label %lean_inc.exit, label %21

21:                                               ; preds = %20
  tail call void @lean_inc_ref_cold(ptr noundef nonnull %5) #5
  br label %lean_inc.exit

lean_inc.exit:                                    ; preds = %21, %20, %18, %15
  tail call void @lean_inc_heartbeat() #5
  %22 = tail call noalias ptr @mi_malloc_small(i64 noundef 16) #5
  %23 = icmp eq ptr %22, null
  br i1 %23, label %24, label %lean_alloc_ctor.exit

24:                                               ; preds = %lean_inc.exit
  tail call void @lean_internal_panic_out_of_memory() #6
  unreachable

lean_alloc_ctor.exit:                             ; preds = %lean_inc.exit
  %25 = getelementptr inbounds nuw i8, ptr %22, i64 4
  store i32 1, ptr %22, align 4, !tbaa !8
  store i32 50397200, ptr %25, align 4
  %26 = getelementptr inbounds nuw i8, ptr %22, i64 8
  store ptr %5, ptr %26, align 8, !tbaa !4
  %27 = tail call ptr @l_Lean_Json_compress(ptr noundef nonnull %22) #5
  br label %lean_inc.exit10

lean_inc.exit10:                                  ; preds = %8, %11, %13, %14, %lean_alloc_ctor.exit
  %.0 = phi ptr [ %27, %lean_alloc_ctor.exit ], [ %5, %14 ], [ %5, %13 ], [ %5, %11 ], [ %5, %8 ]
  ret ptr %.0
}